; Function Attrs: nounwind uwtable
define ptr @l___private_Lean_Elab_PreDefinition_Structural_BRecOn_0__Lean_Elab_Structural_withBelowDict___rarg___lambda__1(ptr noundef %0, ptr noundef %1, ptr noundef %2, ptr noundef %3, ptr noundef %4, ptr noundef %5, ptr noundef %6, ptr readnone captures(none) %7, ptr noundef %8, ptr noundef %9, ptr noundef %10, ptr noundef %11, ptr noundef %12) local_unnamed_addr #0 {
  %14 = tail call ptr @l___private_Lean_Expr_0__Lean_Expr_getAppNumArgsAux(ptr noundef %0, ptr noundef nonnull inttoptr (i64 1 to ptr)) #6
  %15 = load ptr, ptr @l___private_Lean_Elab_PreDefinition_Structural_BRecOn_0__Lean_Elab_Structural_toBelowAux___lambda__7___closed__3, align 8, !tbaa !4
  %16 = ptrtoint ptr %14 to i64
  %17 = and i64 %16, 1
  %.not = icmp eq i64 %17, 0
  br i1 %.not, label %18, label %24

18:                                               ; preds = %13
  %.val.i = load i32, ptr %14, align 4, !tbaa !8
  %19 = icmp sgt i32 %.val.i, 0
  br i1 %19, label %20, label %22, !prof !11

20:                                               ; preds = %18
  %21 = add nuw i32 %.val.i, 1
  store i32 %21, ptr %14, align 4, !tbaa !8
  br label %30

22:                                               ; preds = %18
  %.not.i26 = icmp eq i32 %.val.i, 0
  br i1 %.not.i26, label %30, label %23

23:                                               ; preds = %22
  tail call void @lean_inc_ref_cold(ptr noundef nonnull %14) #6
  br label %30

24:                                               ; preds = %13
  %25 = tail call ptr @lean_mk_array(ptr noundef %14, ptr noundef %15) #6
  %26 = icmp ult ptr %14, inttoptr (i64 2 to ptr)
  br i1 %26, label %lean_dec.exit, label %27

27:                                               ; preds = %24
  %28 = add i64 %16, -2
  %29 = inttoptr i64 %28 to ptr
  br label %lean_dec.exit

30:                                               ; preds = %23, %22, %20
  %31 = tail call ptr @lean_mk_array(ptr noundef nonnull %14, ptr noundef %15) #6
  %32 = tail call ptr @lean_nat_big_sub(ptr noundef nonnull %14, ptr noundef nonnull inttoptr (i64 3 to ptr)) #6
  %33 = load i32, ptr %14, align 4, !tbaa !8
  %34 = icmp sgt i32 %33, 1
  br i1 %34, label %35, label %37, !prof !11

35:                                               ; preds = %30
  %36 = add nsw i32 %33, -1
  store i32 %36, ptr %14, align 4, !tbaa !8
  br label %lean_dec.exit

37:                                               ; preds = %30
  %.not.i = icmp eq i32 %33, 0
  br i1 %.not.i, label %lean_dec.exit, label %38

38:                                               ; preds = %37
  tail call void @lean_dec_ref_cold(ptr noundef nonnull %14) #6
  br label %lean_dec.exit

lean_dec.exit:                                    ; preds = %27, %24, %38, %37, %35
  %.1.i31 = phi ptr [ %32, %35 ], [ %32, %37 ], [ %32, %38 ], [ inttoptr (i64 1 to ptr), %24 ], [ %29, %27 ]
  %39 = phi ptr [ %31, %35 ], [ %31, %37 ], [ %31, %38 ], [ %25, %24 ], [ %25, %27 ]
  %40 = ptrtoint ptr %0 to i64
  %41 = and i64 %40, 1
  %.not32 = icmp eq i64 %41, 0
  br i1 %.not32, label %42, label %lean_inc.exit

42:                                               ; preds = %lean_dec.exit
  %.val.i27 = load i32, ptr %0, align 4, !tbaa !8
  %43 = icmp sgt i32 %.val.i27, 0
  br i1 %43, label %44, label %46, !prof !11

44:                                               ; preds = %42
  %45 = add nuw i32 %.val.i27, 1
  store i32 %45, ptr %0, align 4, !tbaa !8
  br label %lean_inc.exit

46:                                               ; preds = %42
  %.not.i28 = icmp eq i32 %.val.i27, 0
  br i1 %.not.i28, label %lean_inc.exit, label %47

47:                                               ; preds = %46
  tail call void @lean_inc_ref_cold(ptr noundef nonnull %0) #6
  br label %lean_inc.exit

lean_inc.exit:                                    ; preds = %47, %46, %44, %lean_dec.exit
  %48 = tail call ptr @l_Lean_Expr_withAppAux___at___private_Lean_Elab_PreDefinition_Structural_BRecOn_0__Lean_Elab_Structural_withBelowDict___spec__8___rarg(ptr noundef %1, ptr noundef %2, ptr noundef %3, ptr noundef %4, ptr noundef %5, ptr noundef %0, ptr noundef %6, ptr noundef %0, ptr noundef %39, ptr noundef %.1.i31, ptr noundef %8, ptr noundef %9, ptr noundef %10, ptr noundef %11, ptr noundef %12)
  ret ptr %48
}